target datalayout = "e-m:e-p270:32:32-p271:32:32-p272:64:64-i64:64-i128:128-f80:128-n8:16:32:64-S128"
target triple = "x86_64-pc-linux-gnu"

%"class.std::vector.5" = type { %"struct.std::_Vector_base.6" }
%"struct.std::_Vector_base.6" = type { %"struct.std::_Vector_base<float, std::allocator<float>>::_Vector_impl" }
%"struct.std::_Vector_base<float, std::allocator<float>>::_Vector_impl" = type { %"struct.std::_Vector_base<float, std::allocator<float>>::_Vector_impl_data" }
%"struct.std::_Vector_base<float, std::allocator<float>>::_Vector_impl_data" = type { ptr, ptr, ptr }
%"struct.faiss::Index.base" = type <{ ptr, i32, [4 x i8], i64, i8, i8, [2 x i8], i32, float }>
%"struct.faiss::IndexIVFInterface" = type { ptr, %"struct.faiss::Level1Quantizer", i64, i64 }
%"struct.faiss::Level1Quantizer" = type { ptr, i64, i8, i8, %"struct.faiss::ClusteringParameters", ptr }
%"struct.faiss::ClusteringParameters" = type { i32, i32, i8, i8, i8, i8, i8, i32, i32, i32, i64 }
%"struct.faiss::DirectMap" = type { i32, %"class.std::vector", %"class.std::unordered_map" }
%"class.std::vector" = type { %"struct.std::_Vector_base" }
%"struct.std::_Vector_base" = type { %"struct.std::_Vector_base<long, std::allocator<long>>::_Vector_impl" }
%"struct.std::_Vector_base<long, std::allocator<long>>::_Vector_impl" = type { %"struct.std::_Vector_base<long, std::allocator<long>>::_Vector_impl_data" }
%"struct.std::_Vector_base<long, std::allocator<long>>::_Vector_impl_data" = type { ptr, ptr, ptr }
%"class.std::unordered_map" = type { %"class.std::_Hashtable" }
%"class.std::_Hashtable" = type { ptr, i64, %"struct.std::__detail::_Hash_node_base", i64, %"struct.std::__detail::_Prime_rehash_policy", ptr }
%"struct.std::__detail::_Hash_node_base" = type { ptr }
%"struct.std::__detail::_Prime_rehash_policy" = type { float, i64 }
%"struct.faiss::IndexIVFSpectralHash" = type { %"struct.faiss::IndexIVF.base", ptr, i8, i32, float, i32, %"class.std::vector.5" }
%"struct.faiss::IndexIVF.base" = type <{ %"struct.faiss::Index.base", [4 x i8], %"struct.faiss::IndexIVFInterface", ptr, i8, [7 x i8], i64, i32, i32, %"struct.faiss::DirectMap", i8 }>
%"struct.faiss::(anonymous namespace)::IVFScanner" = type <{ %"struct.faiss::InvertedListScanner", ptr, i64, float, float, %"class.std::vector.5", %"class.std::vector.5", %"class.std::vector.30", %"struct.faiss::HammingComputer4", [4 x i8] }>
%"struct.faiss::InvertedListScanner" = type { ptr, i64, i8, i8, ptr, i64 }
%"class.std::vector.30" = type { %"struct.std::_Vector_base.31" }
%"struct.std::_Vector_base.31" = type { %"struct.std::_Vector_base<unsigned char, std::allocator<unsigned char>>::_Vector_impl" }
%"struct.std::_Vector_base<unsigned char, std::allocator<unsigned char>>::_Vector_impl" = type { %"struct.std::_Vector_base<unsigned char, std::allocator<unsigned char>>::_Vector_impl_data" }
%"struct.std::_Vector_base<unsigned char, std::allocator<unsigned char>>::_Vector_impl_data" = type { ptr, ptr, ptr }
%"struct.faiss::HammingComputer4" = type { i32 }

; Function Attrs: mustprogress nounwind uwtable
define linkonce_odr noundef ptr @_ZNKSt6vectorIhSaIhEE11_M_data_ptrIhEEPT_S4_(ptr noundef nonnull align 8 dereferenceable(24) %0, ptr noundef %1) #0 comdat align 2 {
  %3 = alloca ptr, align 8
  %4 = alloca ptr, align 8
  store ptr %0, ptr %3, align 8
  store ptr %1, ptr %4, align 8
  %5 = load ptr, ptr %4, align 8
  ret ptr %5
}

; Function Attrs: mustprogress nounwind uwtable
define linkonce_odr noundef ptr @_ZNKSt6vectorIfSaIfEE11_M_data_ptrIfEEPT_S4_(ptr noundef nonnull align 8 dereferenceable(24) %0, ptr noundef %1) #0 comdat align 2 {
  %3 = alloca ptr, align 8
  %4 = alloca ptr, align 8
  store ptr %0, ptr %3, align 8
  store ptr %1, ptr %4, align 8
  %5 = load ptr, ptr %4, align 8
  ret ptr %5
}

; Function Attrs: mustprogress nounwind uwtable
define linkonce_odr void @_ZN5faiss16HammingComputer43setEPKhi(ptr noundef nonnull align 4 dereferenceable(4) %0, ptr noundef %1, i32 noundef %2) #0 comdat align 2 {
  %4 = alloca ptr, align 8
  %5 = alloca ptr, align 8
  %6 = alloca i32, align 4
  store ptr %0, ptr %4, align 8
  store ptr %1, ptr %5, align 8
  store i32 %2, ptr %6, align 4
  %7 = load ptr, ptr %4, align 8
  %8 = load ptr, ptr %5, align 8
  %9 = load i32, ptr %8, align 4
  %10 = getelementptr inbounds %"struct.faiss::HammingComputer4", ptr %7, i32 0, i32 0
  store i32 %9, ptr %10, align 4
  ret void
}

; Function Attrs: mustprogress nounwind uwtable
define internal void @_ZN5faiss12_GLOBAL__N_118binarize_with_freqEmfPKfS2_Ph(i64 noundef %0, float noundef %1, ptr noundef %2, ptr noundef %3, ptr noundef %4) #0 {
  %6 = alloca i64, align 8
  %7 = alloca float, align 4
  %8 = alloca ptr, align 8
  %9 = alloca ptr, align 8
  %10 = alloca ptr, align 8
  %11 = alloca i64, align 8
  %12 = alloca float, align 4
  %13 = alloca i64, align 8
  %14 = alloca i64, align 8
  store i64 %0, ptr %6, align 8
  store float %1, ptr %7, align 4
  store ptr %2, ptr %8, align 8
  store ptr %3, ptr %9, align 8
  store ptr %4, ptr %10, align 8
  %15 = load ptr, ptr %10, align 8
  %16 = load i64, ptr %6, align 8
  %17 = add i64 %16, 7
  %18 = udiv i64 %17, 8
  call void @llvm.memset.p0.i64(ptr align 1 %15, i8 0, i64 %18, i1 false)
  store i64 0, ptr %11, align 8
  br label %19

19:                                               ; preds = %53, %5
  %20 = load i64, ptr %11, align 8
  %21 = load i64, ptr %6, align 8
  %22 = icmp ult i64 %20, %21
  br i1 %22, label %23, label %56

23:                                               ; preds = %19
  %24 = load ptr, ptr %8, align 8
  %25 = load i64, ptr %11, align 8
  %26 = getelementptr inbounds float, ptr %24, i64 %25
  %27 = load float, ptr %26, align 4
  %28 = load ptr, ptr %9, align 8
  %29 = load i64, ptr %11, align 8
  %30 = getelementptr inbounds float, ptr %28, i64 %29
  %31 = load float, ptr %30, align 4
  %32 = fsub float %27, %31
  store float %32, ptr %12, align 4
  %33 = load float, ptr %12, align 4
  %34 = load float, ptr %7, align 4
  %35 = fmul float %33, %34
  %36 = fpext float %35 to double
  %37 = call double @llvm.floor.f64(double %36)
  %38 = fptosi double %37 to i64
  store i64 %38, ptr %13, align 8
  %39 = load i64, ptr %13, align 8
  %40 = and i64 %39, 1
  store i64 %40, ptr %14, align 8
  %41 = load i64, ptr %14, align 8
  %42 = load i64, ptr %11, align 8
  %43 = and i64 %42, 7
  %44 = shl i64 %41, %43
  %45 = load ptr, ptr %10, align 8
  %46 = load i64, ptr %11, align 8
  %47 = lshr i64 %46, 3
  %48 = getelementptr inbounds i8, ptr %45, i64 %47
  %49 = load i8, ptr %48, align 1
  %50 = zext i8 %49 to i64
  %51 = or i64 %50, %44
  %52 = trunc i64 %51 to i8
  store i8 %52, ptr %48, align 1
  br label %53

53:                                               ; preds = %23
  %54 = load i64, ptr %11, align 8
  %55 = add i64 %54, 1
  store i64 %55, ptr %11, align 8
  br label %19, !llvm.loop !26

56:                                               ; preds = %19
  ret void
}

; Function Attrs: mustprogress nounwind uwtable
define linkonce_odr noundef ptr @_ZNSt6vectorIhSaIhEE4dataEv(ptr noundef nonnull align 8 dereferenceable(24) %0) #0 comdat align 2 {
  %2 = alloca ptr, align 8
  store ptr %0, ptr %2, align 8
  %3 = load ptr, ptr %2, align 8
  %4 = getelementptr inbounds %"struct.std::_Vector_base.31", ptr %3, i32 0, i32 0
  %5 = getelementptr inbounds %"struct.std::_Vector_base<unsigned char, std::allocator<unsigned char>>::_Vector_impl_data", ptr %4, i32 0, i32 0
  %6 = load ptr, ptr %5, align 8
  %7 = call noundef ptr @_ZNKSt6vectorIhSaIhEE11_M_data_ptrIhEEPT_S4_(ptr noundef nonnull align 8 dereferenceable(24) %3, ptr noundef %6) #9
  ret ptr %7
}

; Function Attrs: mustprogress nounwind uwtable
define linkonce_odr noundef ptr @_ZNSt6vectorIfSaIfEE4dataEv(ptr noundef nonnull align 8 dereferenceable(24) %0) #0 comdat align 2 {
  %2 = alloca ptr, align 8
  store ptr %0, ptr %2, align 8
  %3 = load ptr, ptr %2, align 8
  %4 = getelementptr inbounds %"struct.std::_Vector_base.6", ptr %3, i32 0, i32 0
  %5 = getelementptr inbounds %"struct.std::_Vector_base<float, std::allocator<float>>::_Vector_impl_data", ptr %4, i32 0, i32 0
  %6 = load ptr, ptr %5, align 8
  %7 = call noundef ptr @_ZNKSt6vectorIfSaIfEE11_M_data_ptrIfEEPT_S4_(ptr noundef nonnull align 8 dereferenceable(24) %3, ptr noundef %6) #9
  ret ptr %7
}

; Function Attrs: mustprogress nounwind uwtable
define linkonce_odr noundef ptr @_ZNKSt6vectorIfSaIfEE4dataEv(ptr noundef nonnull align 8 dereferenceable(24) %0) #0 comdat align 2 {
  %2 = alloca ptr, align 8
  store ptr %0, ptr %2, align 8
  %3 = load ptr, ptr %2, align 8
  %4 = getelementptr inbounds %"struct.std::_Vector_base.6", ptr %3, i32 0, i32 0
  %5 = getelementptr inbounds %"struct.std::_Vector_base<float, std::allocator<float>>::_Vector_impl_data", ptr %4, i32 0, i32 0
  %6 = load ptr, ptr %5, align 8
  %7 = call noundef ptr @_ZNKSt6vectorIfSaIfEE11_M_data_ptrIfEEPT_S4_(ptr noundef nonnull align 8 dereferenceable(24) %3, ptr noundef %6) #9
  ret ptr %7
}

; Function Attrs: mustprogress nounwind uwtable
define internal void @_ZN5faiss12_GLOBAL__N_110IVFScannerINS_16HammingComputer4EE8set_listElf(ptr noundef nonnull align 8 dereferenceable(140) %0, i64 noundef %1, float noundef %2) unnamed_addr #0 align 2 {
  %4 = alloca ptr, align 8
  %5 = alloca i64, align 8
  %6 = alloca float, align 4
  %7 = alloca ptr, align 8
  store ptr %0, ptr %4, align 8
  store i64 %1, ptr %5, align 8
  store float %2, ptr %6, align 4
  %8 = load ptr, ptr %4, align 8
  %9 = load i64, ptr %5, align 8
  %10 = getelementptr inbounds %"struct.faiss::InvertedListScanner", ptr %8, i32 0, i32 1
  store i64 %9, ptr %10, align 8
  %11 = getelementptr inbounds %"struct.faiss::(anonymous namespace)::IVFScanner", ptr %8, i32 0, i32 1
  %12 = load ptr, ptr %11, align 8
  %13 = getelementptr inbounds %"struct.faiss::IndexIVFSpectralHash", ptr %12, i32 0, i32 5
  %14 = load i32, ptr %13, align 4
  %15 = icmp ne i32 %14, 0
  br i1 %15, label %16, label %41

16:                                               ; preds = %3
  %17 = getelementptr inbounds %"struct.faiss::(anonymous namespace)::IVFScanner", ptr %8, i32 0, i32 1
  %18 = load ptr, ptr %17, align 8
  %19 = getelementptr inbounds %"struct.faiss::IndexIVFSpectralHash", ptr %18, i32 0, i32 6
  %20 = call noundef ptr @_ZNKSt6vectorIfSaIfEE4dataEv(ptr noundef nonnull align 8 dereferenceable(24) %19) #9
  %21 = load i64, ptr %5, align 8
  %22 = getelementptr inbounds %"struct.faiss::(anonymous namespace)::IVFScanner", ptr %8, i32 0, i32 2
  %23 = load i64, ptr %22, align 8
  %24 = mul i64 %21, %23
  %25 = getelementptr inbounds float, ptr %20, i64 %24
  store ptr %25, ptr %7, align 8
  %26 = getelementptr inbounds %"struct.faiss::(anonymous namespace)::IVFScanner", ptr %8, i32 0, i32 2
  %27 = load i64, ptr %26, align 8
  %28 = getelementptr inbounds %"struct.faiss::(anonymous namespace)::IVFScanner", ptr %8, i32 0, i32 4
  %29 = load float, ptr %28, align 4
  %30 = getelementptr inbounds %"struct.faiss::(anonymous namespace)::IVFScanner", ptr %8, i32 0, i32 5
  %31 = call noundef ptr @_ZNSt6vectorIfSaIfEE4dataEv(ptr noundef nonnull align 8 dereferenceable(24) %30) #9
  %32 = load ptr, ptr %7, align 8
  %33 = getelementptr inbounds %"struct.faiss::(anonymous namespace)::IVFScanner", ptr %8, i32 0, i32 7
  %34 = call noundef ptr @_ZNSt6vectorIhSaIhEE4dataEv(ptr noundef nonnull align 8 dereferenceable(24) %33) #9
  call void @_ZN5faiss12_GLOBAL__N_118binarize_with_freqEmfPKfS2_Ph(i64 noundef %27, float noundef %29, ptr noundef %31, ptr noundef %32, ptr noundef %34)
  %35 = getelementptr inbounds %"struct.faiss::(anonymous namespace)::IVFScanner", ptr %8, i32 0, i32 8
  %36 = getelementptr inbounds %"struct.faiss::(anonymous namespace)::IVFScanner", ptr %8, i32 0, i32 7
  %37 = call noundef ptr @_ZNSt6vectorIhSaIhEE4dataEv(ptr noundef nonnull align 8 dereferenceable(24) %36) #9
  %38 = getelementptr inbounds %"struct.faiss::InvertedListScanner", ptr %8, i32 0, i32 5
  %39 = load i64, ptr %38, align 8
  %40 = trunc i64 %39 to i32
  call void @_ZN5faiss16HammingComputer43setEPKhi(ptr noundef nonnull align 4 dereferenceable(4) %35, ptr noundef %37, i32 noundef %40)
  br label %41

41:                                               ; preds = %16, %3
  ret void
}